; Function Attrs: mustprogress uwtable
define void @_ZN7testing32ScopedFakeTestPartResultReporter4InitEv(ptr noundef nonnull align 8 dereferenceable(32) %this) local_unnamed_addr #3 align 2 personality ptr @__gxx_personality_v0 {
entry:
  %0 = load atomic i8, ptr @_ZGVZN7testing8UnitTest11GetInstanceEvE8instance acquire, align 8
  %guard.uninitialized.i.i = icmp eq i8 %0, 0
  br i1 %guard.uninitialized.i.i, label %init.check.i.i, label %_ZN7testing8internal15GetUnitTestImplEv.exit, !prof !7

init.check.i.i:                                   ; preds = %entry
  %1 = tail call i32 @__cxa_guard_acquire(ptr nonnull @_ZGVZN7testing8UnitTest11GetInstanceEvE8instance) #47
  %tobool.not.i.i = icmp eq i32 %1, 0
  br i1 %tobool.not.i.i, label %_ZN7testing8internal15GetUnitTestImplEv.exit, label %init.i.i

init.i.i:                                         ; preds = %init.check.i.i
  invoke void @_ZN7testing8UnitTestC1Ev(ptr noundef nonnull align 8 dereferenceable(72) @_ZZN7testing8UnitTest11GetInstanceEvE8instance)
          to label %invoke.cont.i.i unwind label %lpad.i.i

invoke.cont.i.i:                                  ; preds = %init.i.i
  %2 = tail call i32 @__cxa_atexit(ptr nonnull @_ZN7testing8UnitTestD1Ev, ptr nonnull @_ZZN7testing8UnitTest11GetInstanceEvE8instance, ptr nonnull @__dso_handle) #47
  tail call void @__cxa_guard_release(ptr nonnull @_ZGVZN7testing8UnitTest11GetInstanceEvE8instance) #47
  br label %_ZN7testing8internal15GetUnitTestImplEv.exit

lpad.i.i:                                         ; preds = %init.i.i
  %3 = landingpad { ptr, i32 }
          cleanup
  tail call void @__cxa_guard_abort(ptr nonnull @_ZGVZN7testing8UnitTest11GetInstanceEvE8instance) #47
  resume { ptr, i32 } %3

_ZN7testing8internal15GetUnitTestImplEv.exit:     ; preds = %entry, %init.check.i.i, %invoke.cont.i.i
  %4 = load ptr, ptr getelementptr inbounds (%"class.testing::UnitTest", ptr @_ZZN7testing8UnitTest11GetInstanceEvE8instance, i64 0, i32 2), align 8
  %intercept_mode_ = getelementptr inbounds i8, ptr %this, i64 8
  %5 = load i32, ptr %intercept_mode_, align 8
  %cmp = icmp eq i32 %5, 1
  br i1 %cmp, label %if.then, label %if.else

if.then:                                          ; preds = %_ZN7testing8internal15GetUnitTestImplEv.exit
  %call2 = tail call noundef ptr @_ZN7testing8internal12UnitTestImpl31GetGlobalTestPartResultReporterEv(ptr noundef nonnull align 8 dereferenceable(497) %4)
  %old_reporter_ = getelementptr inbounds i8, ptr %this, i64 16
  store ptr %call2, ptr %old_reporter_, align 8
  tail call void @_ZN7testing8internal12UnitTestImpl31SetGlobalTestPartResultReporterEPNS_31TestPartResultReporterInterfaceE(ptr noundef nonnull align 8 dereferenceable(497) %4, ptr noundef nonnull %this)
  br label %if.end

if.else:                                          ; preds = %_ZN7testing8internal15GetUnitTestImplEv.exit
  %per_thread_test_part_result_reporter_.i = getelementptr inbounds i8, ptr %4, i64 144
  %call.i.i.i = tail call noundef nonnull align 8 dereferenceable(8) ptr @_ZNK7testing8internal11ThreadLocalIPNS_31TestPartResultReporterInterfaceEE16GetOrCreateValueEv(ptr noundef nonnull align 8 dereferenceable(16) %per_thread_test_part_result_reporter_.i)
  %6 = load ptr, ptr %call.i.i.i, align 8
  %old_reporter_4 = getelementptr inbounds i8, ptr %this, i64 16
  store ptr %6, ptr %old_reporter_4, align 8
  %call.i.i.i5 = tail call noundef ptr @_ZNK7testing8internal11ThreadLocalIPNS_31TestPartResultReporterInterfaceEE16GetOrCreateValueEv(ptr noundef nonnull align 8 dereferenceable(16) %per_thread_test_part_result_reporter_.i)
  store ptr %this, ptr %call.i.i.i5, align 8
  br label %if.end

if.end:                                           ; preds = %if.else, %if.then
  ret void
}